; Function Attrs: mustprogress nounwind uwtable
define dso_local void @_ZN5clang14TextNodeDumper24VisitBuiltinTemplateDeclEPKNS_19BuiltinTemplateDeclE(ptr nocapture noundef nonnull readonly align 8 dereferenceable(1168) %0, ptr nocapture noundef readonly %1) local_unnamed_addr #0 align 2 {
  %3 = getelementptr inbounds nuw i8, ptr %1, i64 40
  %.sroa.0.0.copyload.i.i = load i64, ptr %3, align 8
  %.not.i = icmp eq i64 %.sroa.0.0.copyload.i.i, 0
  br i1 %.not.i, label %_ZN5clang14TextNodeDumper8dumpNameEPKNS_9NamedDeclE.exit, label %4

4:                                                ; preds = %2
  %5 = getelementptr inbounds nuw i8, ptr %0, i64 1096
  %6 = load ptr, ptr %5, align 8
  %7 = getelementptr inbounds nuw i8, ptr %0, i64 1104
  %8 = load i8, ptr %7, align 8
  %9 = trunc i8 %8 to i1
  br i1 %9, label %10, label %_ZN5clang10ColorScopeC2ERN4llvm11raw_ostreamEbNS_13TerminalColorE.exit.i

10:                                               ; preds = %4
  %11 = load ptr, ptr %6, align 8
  %12 = getelementptr inbounds i8, ptr %11, i64 24
  %13 = load ptr, ptr %12, align 8
  %14 = tail call noundef nonnull align 8 dereferenceable(48) ptr %13(ptr noundef nonnull align 8 dereferenceable(48) %6, i32 noundef 6, i1 noundef zeroext true, i1 noundef zeroext false) #18
  %.pre.i = load ptr, ptr %5, align 8
  br label %_ZN5clang10ColorScopeC2ERN4llvm11raw_ostreamEbNS_13TerminalColorE.exit.i

_ZN5clang10ColorScopeC2ERN4llvm11raw_ostreamEbNS_13TerminalColorE.exit.i: ; preds = %10, %4
  %15 = phi ptr [ %6, %4 ], [ %.pre.i, %10 ]
  %16 = getelementptr inbounds nuw i8, ptr %15, i64 32
  %17 = load ptr, ptr %16, align 8
  %18 = getelementptr inbounds nuw i8, ptr %15, i64 24
  %19 = load ptr, ptr %18, align 8
  %.not.i.i = icmp ult ptr %17, %19
  br i1 %.not.i.i, label %22, label %20

20:                                               ; preds = %_ZN5clang10ColorScopeC2ERN4llvm11raw_ostreamEbNS_13TerminalColorE.exit.i
  %21 = tail call noundef nonnull align 8 dereferenceable(48) ptr @_ZN4llvm11raw_ostream5writeEh(ptr noundef nonnull align 8 dereferenceable(48) %15, i8 noundef zeroext 32) #18
  br label %_ZN4llvm11raw_ostreamlsEc.exit.i

22:                                               ; preds = %_ZN5clang10ColorScopeC2ERN4llvm11raw_ostreamEbNS_13TerminalColorE.exit.i
  %23 = getelementptr inbounds i8, ptr %17, i64 1
  store ptr %23, ptr %16, align 8
  store i8 32, ptr %17, align 1
  br label %_ZN4llvm11raw_ostreamlsEc.exit.i

_ZN4llvm11raw_ostreamlsEc.exit.i:                 ; preds = %22, %20
  %.0.i.i = phi ptr [ %21, %20 ], [ %15, %22 ]
  %.sroa.0.0.copyload.i4.i = load i64, ptr %3, align 8
  %24 = tail call noundef nonnull align 8 dereferenceable(48) ptr @_ZN5clanglsERN4llvm11raw_ostreamENS_15DeclarationNameE(ptr noundef nonnull align 8 dereferenceable(48) %.0.i.i, i64 %.sroa.0.0.copyload.i4.i) #18
  br i1 %9, label %25, label %_ZN5clang14TextNodeDumper8dumpNameEPKNS_9NamedDeclE.exit

25:                                               ; preds = %_ZN4llvm11raw_ostreamlsEc.exit.i
  %26 = load ptr, ptr %6, align 8
  %27 = getelementptr inbounds i8, ptr %26, i64 32
  %28 = load ptr, ptr %27, align 8
  %29 = tail call noundef nonnull align 8 dereferenceable(48) ptr %28(ptr noundef nonnull align 8 dereferenceable(48) %6) #18
  br label %_ZN5clang14TextNodeDumper8dumpNameEPKNS_9NamedDeclE.exit

_ZN5clang14TextNodeDumper8dumpNameEPKNS_9NamedDeclE.exit: ; preds = %2, %_ZN4llvm11raw_ostreamlsEc.exit.i, %25
  ret void
}